target datalayout = "e-m:e-p270:32:32-p271:32:32-p272:64:64-i64:64-i128:128-f80:128-n8:16:32:64-S128"
target triple = "x86_64-pc-linux-gnu"

%"class.icu_77::CollationFastLatinBuilder" = type <{ %"class.icu_77::UObject", i64, i64, [448 x [2 x i64]], %"class.icu_77::UVector64", %"class.icu_77::UVector64", ptr, [4 x i32], i32, i32, i32, i32, i8, [7 x i8], %"class.icu_77::UnicodeString", i32, [4 x i8] }>
%"class.icu_77::UObject" = type { ptr }
%"class.icu_77::UVector64" = type { %"class.icu_77::UObject", i32, i32, i32, ptr }
%"class.icu_77::UnicodeString" = type { %"class.icu_77::Replaceable", %"union.icu_77::UnicodeString::StackBufferOrFields" }
%"class.icu_77::Replaceable" = type { %"class.icu_77::UObject" }
%"union.icu_77::UnicodeString::StackBufferOrFields" = type { %struct.anon.0, [32 x i8] }
%struct.anon.0 = type { i16, i32, i32, ptr }
%struct.anon = type { i16, [27 x i16] }

@_ZTVN6icu_777UObjectE = available_externally unnamed_addr constant { [5 x ptr] } { [5 x ptr] [ptr null, ptr @_ZTIN6icu_777UObjectE, ptr @_ZN6icu_777UObjectD1Ev, ptr @_ZN6icu_777UObjectD0Ev, ptr @_ZNK6icu_777UObject17getDynamicClassIDEv] }, align 8

; Function Attrs: inlinehint mustprogress nounwind uwtable
define linkonce_odr void @_ZN6icu_7711ReplaceableC2Ev(ptr noundef nonnull align 8 dereferenceable(8) %0) unnamed_addr #1 comdat align 2 {
  %2 = alloca ptr, align 8
  store ptr %0, ptr %2, align 8, !tbaa !91
  %3 = load ptr, ptr %2, align 8
  call void @_ZN6icu_777UObjectC2Ev(ptr noundef nonnull align 8 dereferenceable(8) %3) #9
  store ptr getelementptr inbounds inrange(-16, 88) ({ [13 x ptr] }, ptr @_ZTVN6icu_7711ReplaceableE, i32 0, i32 0, i32 2), ptr %3, align 8, !tbaa !9
  ret void
}

; Function Attrs: inlinehint mustprogress uwtable
define linkonce_odr void @_ZN6icu_7713UnicodeStringC2Ev(ptr noundef nonnull align 8 dereferenceable(64) %0) unnamed_addr #3 comdat align 2 {
  %2 = alloca ptr, align 8
  store ptr %0, ptr %2, align 8, !tbaa !31
  %3 = load ptr, ptr %2, align 8
  call void @_ZN6icu_7711ReplaceableC2Ev(ptr noundef nonnull align 8 dereferenceable(8) %3)
  store ptr getelementptr inbounds inrange(-16, 88) ({ [13 x ptr] }, ptr @_ZTVN6icu_7713UnicodeStringE, i32 0, i32 0, i32 2), ptr %3, align 8, !tbaa !9
  %4 = getelementptr inbounds nuw %"class.icu_77::UnicodeString", ptr %3, i32 0, i32 1
  %5 = getelementptr inbounds nuw %struct.anon, ptr %4, i32 0, i32 0
  store i16 2, ptr %5, align 8, !tbaa !33
  ret void
}

; Function Attrs: inlinehint mustprogress nounwind uwtable
define linkonce_odr void @_ZN6icu_777UObjectC2Ev(ptr noundef nonnull align 8 dereferenceable(8) %0) unnamed_addr #1 comdat align 2 {
  %2 = alloca ptr, align 8
  store ptr %0, ptr %2, align 8, !tbaa !29
  %3 = load ptr, ptr %2, align 8
  store ptr getelementptr inbounds inrange(-16, 24) ({ [5 x ptr] }, ptr @_ZTVN6icu_777UObjectE, i32 0, i32 0, i32 2), ptr %3, align 8, !tbaa !9
  ret void
}

; Function Attrs: mustprogress uwtable
define void @_ZN6icu_7725CollationFastLatinBuilderC2ER10UErrorCode(ptr noundef nonnull align 8 dereferenceable(7372) %0, ptr noundef nonnull align 4 dereferenceable(4) %1) unnamed_addr #0 align 2 personality ptr @__gxx_personality_v0 {
  %3 = alloca ptr, align 8
  %4 = alloca ptr, align 8
  %5 = alloca ptr, align 8
  %6 = alloca i32, align 4
  store ptr %0, ptr %3, align 8, !tbaa !3
  store ptr %1, ptr %4, align 8, !tbaa !8
  %7 = load ptr, ptr %3, align 8
  call void @_ZN6icu_777UObjectC2Ev(ptr noundef nonnull align 8 dereferenceable(8) %7) #9
  store ptr getelementptr inbounds inrange(-16, 24) ({ [5 x ptr] }, ptr @_ZTVN6icu_7725CollationFastLatinBuilderE, i32 0, i32 0, i32 2), ptr %7, align 8, !tbaa !9
  %8 = getelementptr inbounds nuw %"class.icu_77::CollationFastLatinBuilder", ptr %7, i32 0, i32 1
  store i64 0, ptr %8, align 8, !tbaa !11
  %9 = getelementptr inbounds nuw %"class.icu_77::CollationFastLatinBuilder", ptr %7, i32 0, i32 2
  store i64 0, ptr %9, align 8, !tbaa !21
  %10 = getelementptr inbounds nuw %"class.icu_77::CollationFastLatinBuilder", ptr %7, i32 0, i32 4
  %11 = load ptr, ptr %4, align 8, !tbaa !8
  invoke void @_ZN6icu_779UVector64C1ER10UErrorCode(ptr noundef nonnull align 8 dereferenceable(32) %10, ptr noundef nonnull align 4 dereferenceable(4) %11)
          to label %12 unwind label %25

12:                                               ; preds = %2
  %13 = getelementptr inbounds nuw %"class.icu_77::CollationFastLatinBuilder", ptr %7, i32 0, i32 5
  %14 = load ptr, ptr %4, align 8, !tbaa !8
  invoke void @_ZN6icu_779UVector64C1ER10UErrorCode(ptr noundef nonnull align 8 dereferenceable(32) %13, ptr noundef nonnull align 4 dereferenceable(4) %14)
          to label %15 unwind label %29

15:                                               ; preds = %12
  %16 = getelementptr inbounds nuw %"class.icu_77::CollationFastLatinBuilder", ptr %7, i32 0, i32 6
  store ptr null, ptr %16, align 8, !tbaa !22
  %17 = getelementptr inbounds nuw %"class.icu_77::CollationFastLatinBuilder", ptr %7, i32 0, i32 8
  store i32 0, ptr %17, align 8, !tbaa !23
  %18 = getelementptr inbounds nuw %"class.icu_77::CollationFastLatinBuilder", ptr %7, i32 0, i32 9
  store i32 0, ptr %18, align 4, !tbaa !24
  %19 = getelementptr inbounds nuw %"class.icu_77::CollationFastLatinBuilder", ptr %7, i32 0, i32 10
  store i32 0, ptr %19, align 8, !tbaa !25
  %20 = getelementptr inbounds nuw %"class.icu_77::CollationFastLatinBuilder", ptr %7, i32 0, i32 11
  store i32 0, ptr %20, align 4, !tbaa !26
  %21 = getelementptr inbounds nuw %"class.icu_77::CollationFastLatinBuilder", ptr %7, i32 0, i32 12
  store i8 0, ptr %21, align 8, !tbaa !27
  %22 = getelementptr inbounds nuw %"class.icu_77::CollationFastLatinBuilder", ptr %7, i32 0, i32 14
  invoke void @_ZN6icu_7713UnicodeStringC2Ev(ptr noundef nonnull align 8 dereferenceable(64) %22)
          to label %23 unwind label %33

23:                                               ; preds = %15
  %24 = getelementptr inbounds nuw %"class.icu_77::CollationFastLatinBuilder", ptr %7, i32 0, i32 15
  store i32 0, ptr %24, align 8, !tbaa !28
  ret void

25:                                               ; preds = %2
  %26 = landingpad { ptr, i32 }
          cleanup
  %27 = extractvalue { ptr, i32 } %26, 0
  store ptr %27, ptr %5, align 8
  %28 = extractvalue { ptr, i32 } %26, 1
  store i32 %28, ptr %6, align 4
  br label %38

29:                                               ; preds = %12
  %30 = landingpad { ptr, i32 }
          cleanup
  %31 = extractvalue { ptr, i32 } %30, 0
  store ptr %31, ptr %5, align 8
  %32 = extractvalue { ptr, i32 } %30, 1
  store i32 %32, ptr %6, align 4
  br label %37

33:                                               ; preds = %15
  %34 = landingpad { ptr, i32 }
          cleanup
  %35 = extractvalue { ptr, i32 } %34, 0
  store ptr %35, ptr %5, align 8
  %36 = extractvalue { ptr, i32 } %34, 1
  store i32 %36, ptr %6, align 4
  call void @_ZN6icu_779UVector64D1Ev(ptr noundef nonnull align 8 dereferenceable(32) %13) #9
  br label %37

37:                                               ; preds = %33, %29
  call void @_ZN6icu_779UVector64D1Ev(ptr noundef nonnull align 8 dereferenceable(32) %10) #9
  br label %38

38:                                               ; preds = %37, %25
  call void @_ZN6icu_777UObjectD2Ev(ptr noundef nonnull align 8 dereferenceable(8) %7) #9
  br label %39

39:                                               ; preds = %38
  %40 = load ptr, ptr %5, align 8
  %41 = load i32, ptr %6, align 4
  %42 = insertvalue { ptr, i32 } poison, ptr %40, 0
  %43 = insertvalue { ptr, i32 } %42, i32 %41, 1
  resume { ptr, i32 } %43
}