; Function Attrs: mustprogress uwtable
define void @_ZN6icu_7725CollationFastLatinBuilderC2ER10UErrorCode(ptr noundef nonnull align 8 dereferenceable(7372) initializes((0, 24)) %0, ptr noundef nonnull align 4 dereferenceable(4) %1) unnamed_addr #0 align 2 personality ptr @__gxx_personality_v0 {
  store ptr getelementptr inbounds nuw inrange(-16, 24) (i8, ptr @_ZTVN6icu_7725CollationFastLatinBuilderE, i64 16), ptr %0, align 8, !tbaa !3
  %3 = getelementptr inbounds nuw i8, ptr %0, i64 8
  %4 = getelementptr inbounds nuw i8, ptr %0, i64 7192
  tail call void @llvm.memset.p0.i64(ptr noundef nonnull align 8 dereferenceable(16) %3, i8 0, i64 16, i1 false)
  invoke void @_ZN6icu_779UVector64C1ER10UErrorCode(ptr noundef nonnull align 8 dereferenceable(32) %4, ptr noundef nonnull align 4 dereferenceable(4) %1)
          to label %5 unwind label %13

5:                                                ; preds = %2
  %6 = getelementptr inbounds nuw i8, ptr %0, i64 7224
  invoke void @_ZN6icu_779UVector64C1ER10UErrorCode(ptr noundef nonnull align 8 dereferenceable(32) %6, ptr noundef nonnull align 4 dereferenceable(4) %1)
          to label %7 unwind label %15

7:                                                ; preds = %5
  %8 = getelementptr inbounds nuw i8, ptr %0, i64 7256
  store ptr null, ptr %8, align 8, !tbaa !6
  %9 = getelementptr inbounds nuw i8, ptr %0, i64 7280
  %10 = getelementptr inbounds nuw i8, ptr %0, i64 7304
  tail call void @llvm.memset.p0.i64(ptr noundef nonnull align 8 dereferenceable(17) %9, i8 0, i64 17, i1 false)
  store ptr getelementptr inbounds nuw inrange(-16, 88) (i8, ptr @_ZTVN6icu_7713UnicodeStringE, i64 16), ptr %10, align 8, !tbaa !3
  %11 = getelementptr inbounds nuw i8, ptr %0, i64 7312
  store i16 2, ptr %11, align 8, !tbaa !18
  %12 = getelementptr inbounds nuw i8, ptr %0, i64 7368
  store i32 0, ptr %12, align 8, !tbaa !19
  ret void

13:                                               ; preds = %2
  %14 = landingpad { ptr, i32 }
          cleanup
  br label %17

15:                                               ; preds = %5
  %16 = landingpad { ptr, i32 }
          cleanup
  tail call void @_ZN6icu_779UVector64D1Ev(ptr noundef nonnull align 8 dereferenceable(32) %4) #13
  br label %17

17:                                               ; preds = %15, %13
  %.pn.pn = phi { ptr, i32 } [ %16, %15 ], [ %14, %13 ]
  tail call void @_ZN6icu_777UObjectD2Ev(ptr noundef nonnull align 8 dereferenceable(8) %0) #13
  resume { ptr, i32 } %.pn.pn
}